; Function Attrs: nounwind uwtable
define range(i32 0, 2) i32 @ssl_gensecret(ptr noundef %0, ptr noundef %1, i64 noundef %2) local_unnamed_addr #4 {
  %4 = getelementptr inbounds nuw i8, ptr %0, i64 24
  %5 = load ptr, ptr %4, align 8, !tbaa !133
  %6 = getelementptr inbounds nuw i8, ptr %5, i64 216
  %7 = load ptr, ptr %6, align 8, !tbaa !134
  %8 = getelementptr inbounds nuw i8, ptr %7, i64 80
  %9 = load i32, ptr %8, align 8, !tbaa !135
  %10 = and i32 %9, 8
  %.not = icmp eq i32 %10, 0
  br i1 %.not, label %11, label %25

11:                                               ; preds = %3
  %12 = load i32, ptr %5, align 8, !tbaa !137
  %13 = icmp slt i32 %12, 772
  %.not15 = icmp eq i32 %12, 65536
  %or.cond = or i1 %13, %.not15
  br i1 %or.cond, label %25, label %14

14:                                               ; preds = %11
  %15 = getelementptr inbounds nuw i8, ptr %0, i64 1288
  %16 = load i32, ptr %15, align 8, !tbaa !242
  %.not16 = icmp eq i32 %16, 0
  br i1 %.not16, label %17, label %.critedge

17:                                               ; preds = %14
  %18 = tail call ptr @ssl_handshake_md(ptr noundef nonnull %0) #18
  %19 = getelementptr inbounds nuw i8, ptr %0, i64 1404
  %20 = tail call i32 @tls13_generate_secret(ptr noundef nonnull %0, ptr noundef %18, ptr noundef null, ptr noundef null, i64 noundef 0, ptr noundef nonnull %19) #18
  %21 = icmp eq i32 %20, 0
  br i1 %21, label %27, label %.critedge

.critedge:                                        ; preds = %14, %17
  %22 = tail call i32 @tls13_generate_handshake_secret(ptr noundef nonnull %0, ptr noundef %1, i64 noundef %2) #18
  %23 = icmp ne i32 %22, 0
  %24 = zext i1 %23 to i32
  br label %27

25:                                               ; preds = %11, %3
  %26 = tail call i32 @ssl_generate_master_secret(ptr noundef nonnull %0, ptr noundef %1, i64 noundef %2, i32 noundef 0)
  br label %27

27:                                               ; preds = %17, %.critedge, %25
  %.1 = phi i32 [ %26, %25 ], [ 0, %17 ], [ %24, %.critedge ]
  ret i32 %.1
}